target datalayout = "e-m:e-p270:32:32-p271:32:32-p272:64:64-i64:64-i128:128-f80:128-n8:16:32:64-S128"
target triple = "x86_64-pc-linux-gnu"

%"class.llvm::Twine" = type <{ %"union.llvm::Twine::Child", %"union.llvm::Twine::Child", i8, i8, [6 x i8] }>
%"union.llvm::Twine::Child" = type { %struct.anon }
%struct.anon = type { ptr, i64 }

@.str.200 = private unnamed_addr constant [33 x i8] c"expected identifier in directive\00", align 1

; Function Attrs: mustprogress nounwind uwtable
define linkonce_odr hidden void @_ZN4llvm5TwineC2EPKc(ptr noundef nonnull align 8 dereferenceable(34) %0, ptr noundef %1) unnamed_addr #0 comdat align 2 {
  %3 = alloca ptr, align 8
  %4 = alloca ptr, align 8
  store ptr %0, ptr %3, align 8
  store ptr %1, ptr %4, align 8
  %5 = load ptr, ptr %3, align 8
  %6 = getelementptr inbounds nuw %"class.llvm::Twine", ptr %5, i32 0, i32 2
  store i8 1, ptr %6, align 8
  %7 = getelementptr inbounds nuw %"class.llvm::Twine", ptr %5, i32 0, i32 3
  store i8 1, ptr %7, align 1
  %8 = load ptr, ptr %4, align 8
  %9 = getelementptr inbounds i8, ptr %8, i64 0
  %10 = load i8, ptr %9, align 1
  %11 = sext i8 %10 to i32
  %12 = icmp ne i32 %11, 0
  br i1 %12, label %13, label %17

13:                                               ; preds = %2
  %14 = load ptr, ptr %4, align 8
  %15 = getelementptr inbounds nuw %"class.llvm::Twine", ptr %5, i32 0, i32 0
  store ptr %14, ptr %15, align 8
  %16 = getelementptr inbounds nuw %"class.llvm::Twine", ptr %5, i32 0, i32 2
  store i8 3, ptr %16, align 8
  br label %19

17:                                               ; preds = %2
  %18 = getelementptr inbounds nuw %"class.llvm::Twine", ptr %5, i32 0, i32 2
  store i8 1, ptr %18, align 8
  br label %19

19:                                               ; preds = %17, %13
  ret void
}

; Function Attrs: mustprogress nounwind uwtable
define internal noundef zeroext i1 @_ZN12_GLOBAL__N_110MasmParser34parseDirectiveCVFileChecksumOffsetEv(ptr noundef nonnull align 8 dereferenceable(1144) %0) #0 align 2 {
  %2 = alloca i1, align 1
  %3 = alloca ptr, align 8
  %4 = alloca i64, align 8
  %5 = alloca %"class.llvm::Twine", align 8
  store ptr %0, ptr %3, align 8
  %6 = load ptr, ptr %3, align 8
  call void @_ZN4llvm5TwineC2EPKc(ptr noundef nonnull align 8 dereferenceable(34) %5, ptr noundef @.str.200)
  %7 = call noundef zeroext i1 @_ZN4llvm11MCAsmParser13parseIntTokenERlRKNS_5TwineE(ptr noundef nonnull align 8 dereferenceable(34) %6, ptr noundef nonnull align 8 dereferenceable(8) %4, ptr noundef nonnull align 8 dereferenceable(34) %5)
  br i1 %7, label %8, label %9

8:                                                ; preds = %1
  store i1 true, ptr %2, align 1
  br label %22

9:                                                ; preds = %1
  %10 = call noundef zeroext i1 @_ZN4llvm11MCAsmParser8parseEOLEv(ptr noundef nonnull align 8 dereferenceable(34) %6)
  br i1 %10, label %11, label %12

11:                                               ; preds = %9
  store i1 true, ptr %2, align 1
  br label %22

12:                                               ; preds = %9
  %13 = load ptr, ptr %6, align 8
  %14 = getelementptr inbounds ptr, ptr %13, i64 7
  %15 = load ptr, ptr %14, align 8
  %16 = call noundef nonnull align 8 dereferenceable(288) ptr %15(ptr noundef nonnull align 8 dereferenceable(1144) %6)
  %17 = load i64, ptr %4, align 8
  %18 = trunc i64 %17 to i32
  %19 = load ptr, ptr %16, align 8
  %20 = getelementptr inbounds ptr, ptr %19, i64 104
  %21 = load ptr, ptr %20, align 8
  call void %21(ptr noundef nonnull align 8 dereferenceable(288) %16, i32 noundef %18)
  store i1 false, ptr %2, align 1
  br label %22

22:                                               ; preds = %12, %11, %8
  %23 = load i1, ptr %2, align 1
  ret i1 %23
}