; Function Attrs: mustprogress nounwind uwtable
define internal fastcc noundef zeroext i1 @_ZN12_GLOBAL__N_110MasmParser34parseDirectiveCVFileChecksumOffsetEv(ptr noundef nonnull align 8 dereferenceable(1144) %0) unnamed_addr #0 align 2 {
  %2 = alloca i64, align 8
  %3 = alloca %"class.llvm::Twine", align 8
  %4 = getelementptr inbounds nuw i8, ptr %3, i64 32
  %5 = getelementptr inbounds nuw i8, ptr %3, i64 33
  store i8 1, ptr %5, align 1
  store ptr @.str.200, ptr %3, align 8
  store i8 3, ptr %4, align 8
  %6 = call noundef zeroext i1 @_ZN4llvm11MCAsmParser13parseIntTokenERlRKNS_5TwineE(ptr noundef nonnull align 8 dereferenceable(34) %0, ptr noundef nonnull align 8 dereferenceable(8) %2, ptr noundef nonnull align 8 dereferenceable(34) %3) #24
  br i1 %6, label %19, label %7

7:                                                ; preds = %1
  %8 = call noundef zeroext i1 @_ZN4llvm11MCAsmParser8parseEOLEv(ptr noundef nonnull align 8 dereferenceable(34) %0) #24
  br i1 %8, label %19, label %9

9:                                                ; preds = %7
  %10 = load ptr, ptr %0, align 8
  %11 = getelementptr inbounds nuw i8, ptr %10, i64 56
  %12 = load ptr, ptr %11, align 8
  %13 = call noundef nonnull align 8 dereferenceable(288) ptr %12(ptr noundef nonnull align 8 dereferenceable(1144) %0) #24
  %14 = load i64, ptr %2, align 8
  %15 = trunc i64 %14 to i32
  %16 = load ptr, ptr %13, align 8
  %17 = getelementptr inbounds nuw i8, ptr %16, i64 832
  %18 = load ptr, ptr %17, align 8
  call void %18(ptr noundef nonnull align 8 dereferenceable(288) %13, i32 noundef %15) #24
  br label %19

19:                                               ; preds = %7, %1, %9
  %.0 = phi i1 [ false, %9 ], [ true, %1 ], [ true, %7 ]
  ret i1 %.0
}